target datalayout = "e-m:e-p270:32:32-p271:32:32-p272:64:64-i64:64-i128:128-f80:128-n8:16:32:64-S128"
target triple = "x86_64-pc-linux-gnu"

%"class.std::__cxx11::basic_string" = type { %"struct.std::__cxx11::basic_string<char>::_Alloc_hider", i64, %union.anon }
%"struct.std::__cxx11::basic_string<char>::_Alloc_hider" = type { ptr }
%union.anon = type { i64, [8 x i8] }
%class.Variable = type { ptr, %"class.std::vector.18", %"class.std::__cxx11::basic_string", ptr, ptr, i8, i8, i8, i8, i8, i8, ptr, i8, %class.CVQualifiers }
%"class.std::vector.18" = type { %"struct.std::_Vector_base.19" }
%"struct.std::_Vector_base.19" = type { %"struct.std::_Vector_base<Variable *, std::allocator<Variable *>>::_Vector_impl" }
%"struct.std::_Vector_base<Variable *, std::allocator<Variable *>>::_Vector_impl" = type { %"struct.std::_Vector_base<Variable *, std::allocator<Variable *>>::_Vector_impl_data" }
%"struct.std::_Vector_base<Variable *, std::allocator<Variable *>>::_Vector_impl_data" = type { ptr, ptr, ptr }
%class.CVQualifiers = type { ptr, i8, i8, %"class.std::vector.23", %"class.std::vector.23" }
%"class.std::vector.23" = type { %"struct.std::_Bvector_base" }
%"struct.std::_Bvector_base" = type { %"struct.std::_Bvector_base<std::allocator<bool>>::_Bvector_impl" }
%"struct.std::_Bvector_base<std::allocator<bool>>::_Bvector_impl" = type { %"struct.std::_Bvector_base<std::allocator<bool>>::_Bvector_impl_data" }
%"struct.std::_Bvector_base<std::allocator<bool>>::_Bvector_impl_data" = type { %"struct.std::_Bit_iterator", %"struct.std::_Bit_iterator", ptr }
%"struct.std::_Bit_iterator" = type { %"struct.std::_Bit_iterator_base.base", [4 x i8] }
%"struct.std::_Bit_iterator_base.base" = type <{ ptr, i32 }>

; Function Attrs: mustprogress nounwind uwtable
define linkonce_odr dso_local noundef nonnull align 8 dereferenceable(8) ptr @_ZNKSt6vectorIP8VariableSaIS1_EEixEm(ptr noundef nonnull align 8 dereferenceable(24) %0, i64 noundef %1) #4 comdat align 2 {
  %3 = alloca ptr, align 8
  %4 = alloca i64, align 8
  store ptr %0, ptr %3, align 8, !tbaa !69
  store i64 %1, ptr %4, align 8, !tbaa !42
  %5 = load ptr, ptr %3, align 8
  %6 = getelementptr inbounds nuw %"struct.std::_Vector_base.19", ptr %5, i32 0, i32 0
  %7 = getelementptr inbounds nuw %"struct.std::_Vector_base<Variable *, std::allocator<Variable *>>::_Vector_impl_data", ptr %6, i32 0, i32 0
  %8 = load ptr, ptr %7, align 8, !tbaa !73
  %9 = load i64, ptr %4, align 8, !tbaa !42
  %10 = getelementptr inbounds nuw ptr, ptr %8, i64 %9
  ret ptr %10
}

; Function Attrs: mustprogress nounwind uwtable
define linkonce_odr dso_local noundef i64 @_ZNKSt6vectorIP8VariableSaIS1_EE4sizeEv(ptr noundef nonnull align 8 dereferenceable(24) %0) #4 comdat align 2 {
  %2 = alloca ptr, align 8
  store ptr %0, ptr %2, align 8, !tbaa !69
  %3 = load ptr, ptr %2, align 8
  %4 = getelementptr inbounds nuw %"struct.std::_Vector_base.19", ptr %3, i32 0, i32 0
  %5 = getelementptr inbounds nuw %"struct.std::_Vector_base<Variable *, std::allocator<Variable *>>::_Vector_impl_data", ptr %4, i32 0, i32 1
  %6 = load ptr, ptr %5, align 8, !tbaa !72
  %7 = getelementptr inbounds nuw %"struct.std::_Vector_base.19", ptr %3, i32 0, i32 0
  %8 = getelementptr inbounds nuw %"struct.std::_Vector_base<Variable *, std::allocator<Variable *>>::_Vector_impl_data", ptr %7, i32 0, i32 0
  %9 = load ptr, ptr %8, align 8, !tbaa !73
  %10 = ptrtoint ptr %6 to i64
  %11 = ptrtoint ptr %9 to i64
  %12 = sub i64 %10, %11
  %13 = sdiv exact i64 %12, 8
  ret i64 %13
}

; Function Attrs: mustprogress uwtable
define dso_local noundef nonnull align 8 dereferenceable(24) ptr @_ZN8Variable17get_new_ctrl_varsEv() #6 align 2 {
  %1 = call noundef nonnull align 8 dereferenceable(24) ptr @_ZN8Variable13new_ctrl_varsEv()
  ret ptr %1
}

; Function Attrs: mustprogress uwtable
define dso_local noundef i64 @_ZN8Variable20GetMaxArrayDimensionERKSt6vectorIPS_SaIS1_EE(ptr noundef nonnull align 8 dereferenceable(24) %0) #6 align 2 {
  %2 = alloca ptr, align 8
  %3 = alloca i64, align 8
  %4 = alloca i64, align 8
  %5 = alloca ptr, align 8
  store ptr %0, ptr %2, align 8, !tbaa !69
  call void @llvm.lifetime.start.p0(i64 8, ptr %3) #3
  store i64 0, ptr %3, align 8, !tbaa !42
  call void @llvm.lifetime.start.p0(i64 8, ptr %4) #3
  store i64 0, ptr %4, align 8, !tbaa !42
  br label %6

6:                                                ; preds = %40, %1
  %7 = load i64, ptr %4, align 8, !tbaa !42
  %8 = load ptr, ptr %2, align 8, !tbaa !69
  %9 = call noundef i64 @_ZNKSt6vectorIP8VariableSaIS1_EE4sizeEv(ptr noundef nonnull align 8 dereferenceable(24) %8) #3
  %10 = icmp ult i64 %7, %9
  br i1 %10, label %12, label %11

11:                                               ; preds = %6
  call void @llvm.lifetime.end.p0(i64 8, ptr %4) #3
  br label %43

12:                                               ; preds = %6
  %13 = load ptr, ptr %2, align 8, !tbaa !69
  %14 = load i64, ptr %4, align 8, !tbaa !42
  %15 = call noundef nonnull align 8 dereferenceable(8) ptr @_ZNKSt6vectorIP8VariableSaIS1_EEixEm(ptr noundef nonnull align 8 dereferenceable(24) %13, i64 noundef %14) #3
  %16 = load ptr, ptr %15, align 8, !tbaa !40
  %17 = getelementptr inbounds nuw %class.Variable, ptr %16, i32 0, i32 12
  %18 = load i8, ptr %17, align 8, !tbaa !125, !range !81, !noundef !82
  %19 = trunc i8 %18 to i1
  br i1 %19, label %20, label %39

20:                                               ; preds = %12
  call void @llvm.lifetime.start.p0(i64 8, ptr %5) #3
  %21 = load ptr, ptr %2, align 8, !tbaa !69
  %22 = load i64, ptr %4, align 8, !tbaa !42
  %23 = call noundef nonnull align 8 dereferenceable(8) ptr @_ZNKSt6vectorIP8VariableSaIS1_EEixEm(ptr noundef nonnull align 8 dereferenceable(24) %21, i64 noundef %22) #3
  %24 = load ptr, ptr %23, align 8, !tbaa !40
  store ptr %24, ptr %5, align 8, !tbaa !208
  %25 = load ptr, ptr %5, align 8, !tbaa !208
  %26 = load ptr, ptr %25, align 8, !tbaa !121
  %27 = getelementptr inbounds ptr, ptr %26, i64 5
  %28 = load ptr, ptr %27, align 8
  %29 = call noundef i64 %28(ptr noundef nonnull align 8 dereferenceable(288) %25)
  %30 = load i64, ptr %3, align 8, !tbaa !42
  %31 = icmp ugt i64 %29, %30
  br i1 %31, label %32, label %38

32:                                               ; preds = %20
  %33 = load ptr, ptr %5, align 8, !tbaa !208
  %34 = load ptr, ptr %33, align 8, !tbaa !121
  %35 = getelementptr inbounds ptr, ptr %34, i64 5
  %36 = load ptr, ptr %35, align 8
  %37 = call noundef i64 %36(ptr noundef nonnull align 8 dereferenceable(288) %33)
  store i64 %37, ptr %3, align 8, !tbaa !42
  br label %38

38:                                               ; preds = %32, %20
  call void @llvm.lifetime.end.p0(i64 8, ptr %5) #3
  br label %39

39:                                               ; preds = %38, %12
  br label %40

40:                                               ; preds = %39
  %41 = load i64, ptr %4, align 8, !tbaa !42
  %42 = add i64 %41, 1
  store i64 %42, ptr %4, align 8, !tbaa !42
  br label %6, !llvm.loop !209

43:                                               ; preds = %11
  %44 = load i64, ptr %3, align 8, !tbaa !42
  call void @llvm.lifetime.end.p0(i64 8, ptr %3) #3
  ret i64 %44
}

; Function Attrs: mustprogress uwtable
define dso_local void @_Z23OutputArrayInitializersRKSt6vectorIP8VariableSaIS1_EERSoi(ptr noundef nonnull align 8 dereferenceable(24) %0, ptr noundef nonnull align 8 dereferenceable(8) %1, i32 noundef %2) #6 {
  %4 = alloca ptr, align 8
  %5 = alloca ptr, align 8
  %6 = alloca i32, align 4
  %7 = alloca i64, align 8
  %8 = alloca i64, align 8
  %9 = alloca ptr, align 8
  %10 = alloca ptr, align 8
  store ptr %0, ptr %4, align 8, !tbaa !69
  store ptr %1, ptr %5, align 8, !tbaa !146
  store i32 %2, ptr %6, align 4, !tbaa !74
  call void @llvm.lifetime.start.p0(i64 8, ptr %7) #3
  call void @llvm.lifetime.start.p0(i64 8, ptr %8) #3
  %11 = load ptr, ptr %4, align 8, !tbaa !69
  %12 = call noundef i64 @_ZN8Variable20GetMaxArrayDimensionERKSt6vectorIPS_SaIS1_EE(ptr noundef nonnull align 8 dereferenceable(24) %11)
  store i64 %12, ptr %8, align 8, !tbaa !42
  %13 = load i64, ptr %8, align 8, !tbaa !42
  %14 = icmp ne i64 %13, 0
  br i1 %14, label %15, label %55

15:                                               ; preds = %3
  call void @llvm.lifetime.start.p0(i64 8, ptr %9) #3
  %16 = call noundef nonnull align 8 dereferenceable(24) ptr @_ZN8Variable17get_new_ctrl_varsEv()
  store ptr %16, ptr %9, align 8, !tbaa !38
  %17 = load ptr, ptr %9, align 8, !tbaa !38
  %18 = load ptr, ptr %5, align 8, !tbaa !146
  %19 = load i64, ptr %8, align 8, !tbaa !42
  %20 = load i32, ptr %6, align 4, !tbaa !74
  call void @_Z19OutputArrayCtrlVarsRKSt6vectorIPK8VariableSaIS2_EERSomi(ptr noundef nonnull align 8 dereferenceable(24) %17, ptr noundef nonnull align 8 dereferenceable(8) %18, i64 noundef %19, i32 noundef %20)
  store i64 0, ptr %7, align 8, !tbaa !42
  br label %21

21:                                               ; preds = %51, %15
  %22 = load i64, ptr %7, align 8, !tbaa !42
  %23 = load ptr, ptr %4, align 8, !tbaa !69
  %24 = call noundef i64 @_ZNKSt6vectorIP8VariableSaIS1_EE4sizeEv(ptr noundef nonnull align 8 dereferenceable(24) %23) #3
  %25 = icmp ult i64 %22, %24
  br i1 %25, label %26, label %54

26:                                               ; preds = %21
  %27 = load ptr, ptr %4, align 8, !tbaa !69
  %28 = load i64, ptr %7, align 8, !tbaa !42
  %29 = call noundef nonnull align 8 dereferenceable(8) ptr @_ZNKSt6vectorIP8VariableSaIS1_EEixEm(ptr noundef nonnull align 8 dereferenceable(24) %27, i64 noundef %28) #3
  %30 = load ptr, ptr %29, align 8, !tbaa !40
  %31 = getelementptr inbounds nuw %class.Variable, ptr %30, i32 0, i32 12
  %32 = load i8, ptr %31, align 8, !tbaa !125, !range !81, !noundef !82
  %33 = trunc i8 %32 to i1
  br i1 %33, label %34, label %50

34:                                               ; preds = %26
  call void @llvm.lifetime.start.p0(i64 8, ptr %10) #3
  %35 = load ptr, ptr %4, align 8, !tbaa !69
  %36 = load i64, ptr %7, align 8, !tbaa !42
  %37 = call noundef nonnull align 8 dereferenceable(8) ptr @_ZNKSt6vectorIP8VariableSaIS1_EEixEm(ptr noundef nonnull align 8 dereferenceable(24) %35, i64 noundef %36) #3
  %38 = load ptr, ptr %37, align 8, !tbaa !40
  store ptr %38, ptr %10, align 8, !tbaa !208
  %39 = load ptr, ptr %10, align 8, !tbaa !208
  %40 = call noundef zeroext i1 @_ZNK13ArrayVariable19no_loop_initializerEv(ptr noundef nonnull align 8 dereferenceable(288) %39)
  br i1 %40, label %49, label %41

41:                                               ; preds = %34
  %42 = load ptr, ptr %10, align 8, !tbaa !208
  %43 = load ptr, ptr %5, align 8, !tbaa !146
  %44 = load ptr, ptr %10, align 8, !tbaa !208
  %45 = getelementptr inbounds nuw %class.Variable, ptr %44, i32 0, i32 4
  %46 = load ptr, ptr %45, align 8, !tbaa !154
  %47 = load ptr, ptr %9, align 8, !tbaa !38
  %48 = load i32, ptr %6, align 4, !tbaa !74
  call void @_ZNK13ArrayVariable11output_initERSoPK10ExpressionRKSt6vectorIPK8VariableSaIS7_EEi(ptr noundef nonnull align 8 dereferenceable(288) %42, ptr noundef nonnull align 8 dereferenceable(8) %43, ptr noundef %46, ptr noundef nonnull align 8 dereferenceable(24) %47, i32 noundef %48)
  br label %49

49:                                               ; preds = %41, %34
  call void @llvm.lifetime.end.p0(i64 8, ptr %10) #3
  br label %50

50:                                               ; preds = %49, %26
  br label %51

51:                                               ; preds = %50
  %52 = load i64, ptr %7, align 8, !tbaa !42
  %53 = add i64 %52, 1
  store i64 %53, ptr %7, align 8, !tbaa !42
  br label %21, !llvm.loop !210

54:                                               ; preds = %21
  call void @llvm.lifetime.end.p0(i64 8, ptr %9) #3
  br label %55

55:                                               ; preds = %54, %3
  call void @llvm.lifetime.end.p0(i64 8, ptr %8) #3
  call void @llvm.lifetime.end.p0(i64 8, ptr %7) #3
  ret void
}