; Function Attrs: mustprogress uwtable
define dso_local void @_Z23OutputArrayInitializersRKSt6vectorIP8VariableSaIS1_EERSoi(ptr noundef nonnull readonly align 8 captures(none) dereferenceable(24) %0, ptr noundef nonnull align 8 dereferenceable(8) %1, i32 noundef %2) local_unnamed_addr #5 {
  %4 = getelementptr inbounds nuw i8, ptr %0, i64 8
  %5 = load ptr, ptr %4, align 8, !tbaa !83
  %6 = load ptr, ptr %0, align 8, !tbaa !84
  %.not.i = icmp eq ptr %5, %6
  br i1 %.not.i, label %_ZN8Variable20GetMaxArrayDimensionERKSt6vectorIPS_SaIS1_EE.exit.thread, label %.lr.ph.i

.lr.ph.i:                                         ; preds = %3, %24
  %7 = phi ptr [ %27, %24 ], [ %6, %3 ]
  %.012.i = phi i64 [ %.2.i, %24 ], [ 0, %3 ]
  %.01011.i = phi i64 [ %25, %24 ], [ 0, %3 ]
  %8 = getelementptr inbounds nuw ptr, ptr %7, i64 %.01011.i
  %9 = load ptr, ptr %8, align 8, !tbaa !37
  %10 = getelementptr inbounds nuw i8, ptr %9, i64 96
  %11 = load i8, ptr %10, align 8, !tbaa !103, !range !104, !noundef !105
  %12 = trunc nuw i8 %11 to i1
  br i1 %12, label %13, label %24

13:                                               ; preds = %.lr.ph.i
  %14 = load ptr, ptr %9, align 8, !tbaa !97
  %15 = getelementptr inbounds nuw i8, ptr %14, i64 40
  %16 = load ptr, ptr %15, align 8
  %17 = tail call noundef i64 %16(ptr noundef nonnull align 8 dereferenceable(288) %9)
  %18 = icmp ugt i64 %17, %.012.i
  br i1 %18, label %19, label %24

19:                                               ; preds = %13
  %20 = load ptr, ptr %9, align 8, !tbaa !97
  %21 = getelementptr inbounds nuw i8, ptr %20, i64 40
  %22 = load ptr, ptr %21, align 8
  %23 = tail call noundef i64 %22(ptr noundef nonnull align 8 dereferenceable(288) %9)
  br label %24

24:                                               ; preds = %19, %13, %.lr.ph.i
  %.2.i = phi i64 [ %.012.i, %.lr.ph.i ], [ %23, %19 ], [ %.012.i, %13 ]
  %25 = add nuw i64 %.01011.i, 1
  %26 = load ptr, ptr %4, align 8, !tbaa !83
  %27 = load ptr, ptr %0, align 8, !tbaa !84
  %28 = ptrtoint ptr %26 to i64
  %29 = ptrtoint ptr %27 to i64
  %30 = sub i64 %28, %29
  %31 = ashr exact i64 %30, 3
  %32 = icmp ult i64 %25, %31
  br i1 %32, label %.lr.ph.i, label %_ZN8Variable20GetMaxArrayDimensionERKSt6vectorIPS_SaIS1_EE.exit, !llvm.loop !212

_ZN8Variable20GetMaxArrayDimensionERKSt6vectorIPS_SaIS1_EE.exit: ; preds = %24
  %.not = icmp eq i64 %.2.i, 0
  br i1 %.not, label %_ZN8Variable20GetMaxArrayDimensionERKSt6vectorIPS_SaIS1_EE.exit.thread, label %33

33:                                               ; preds = %_ZN8Variable20GetMaxArrayDimensionERKSt6vectorIPS_SaIS1_EE.exit
  %34 = tail call noundef nonnull align 8 dereferenceable(24) ptr @_ZN8Variable13new_ctrl_varsEv()
  tail call void @_Z19OutputArrayCtrlVarsRKSt6vectorIPK8VariableSaIS2_EERSomi(ptr noundef nonnull align 8 dereferenceable(24) %34, ptr noundef nonnull align 8 dereferenceable(8) %1, i64 noundef %.2.i, i32 noundef %2)
  %35 = load ptr, ptr %4, align 8, !tbaa !83
  %36 = load ptr, ptr %0, align 8, !tbaa !84
  %.not22 = icmp eq ptr %35, %36
  br i1 %.not22, label %_ZN8Variable20GetMaxArrayDimensionERKSt6vectorIPS_SaIS1_EE.exit.thread, label %.lr.ph

.lr.ph:                                           ; preds = %33, %48
  %37 = phi ptr [ %51, %48 ], [ %36, %33 ]
  %.021 = phi i64 [ %49, %48 ], [ 0, %33 ]
  %38 = getelementptr inbounds nuw ptr, ptr %37, i64 %.021
  %39 = load ptr, ptr %38, align 8, !tbaa !37
  %40 = getelementptr inbounds nuw i8, ptr %39, i64 96
  %41 = load i8, ptr %40, align 8, !tbaa !103, !range !104, !noundef !105
  %42 = trunc nuw i8 %41 to i1
  br i1 %42, label %43, label %48

43:                                               ; preds = %.lr.ph
  %44 = tail call noundef zeroext i1 @_ZNK13ArrayVariable19no_loop_initializerEv(ptr noundef nonnull align 8 dereferenceable(288) %39)
  br i1 %44, label %48, label %45

45:                                               ; preds = %43
  %46 = getelementptr inbounds nuw i8, ptr %39, i64 72
  %47 = load ptr, ptr %46, align 8, !tbaa !137
  tail call void @_ZNK13ArrayVariable11output_initERSoPK10ExpressionRKSt6vectorIPK8VariableSaIS7_EEi(ptr noundef nonnull align 8 dereferenceable(288) %39, ptr noundef nonnull align 8 dereferenceable(8) %1, ptr noundef %47, ptr noundef nonnull align 8 dereferenceable(24) %34, i32 noundef %2)
  br label %48

48:                                               ; preds = %43, %45, %.lr.ph
  %49 = add nuw i64 %.021, 1
  %50 = load ptr, ptr %4, align 8, !tbaa !83
  %51 = load ptr, ptr %0, align 8, !tbaa !84
  %52 = ptrtoint ptr %50 to i64
  %53 = ptrtoint ptr %51 to i64
  %54 = sub i64 %52, %53
  %55 = ashr exact i64 %54, 3
  %56 = icmp ult i64 %49, %55
  br i1 %56, label %.lr.ph, label %_ZN8Variable20GetMaxArrayDimensionERKSt6vectorIPS_SaIS1_EE.exit.thread, !llvm.loop !213

_ZN8Variable20GetMaxArrayDimensionERKSt6vectorIPS_SaIS1_EE.exit.thread: ; preds = %48, %33, %3, %_ZN8Variable20GetMaxArrayDimensionERKSt6vectorIPS_SaIS1_EE.exit
  ret void
}